target datalayout = "e-m:e-p270:32:32-p271:32:32-p272:64:64-i64:64-i128:128-f80:128-n8:16:32:64-S128"
target triple = "x86_64-pc-linux-gnu"

%struct.IncrblobChannel = type { ptr, ptr, i64, i32, ptr, ptr, ptr }

; Function Attrs: nounwind uwtable
define internal i32 @incrblobInput(ptr noundef %0, ptr noundef %1, i32 noundef %2, ptr noundef %3) #0 {
  %5 = alloca i32, align 4
  %6 = alloca ptr, align 8
  %7 = alloca ptr, align 8
  %8 = alloca i32, align 4
  %9 = alloca ptr, align 8
  %10 = alloca ptr, align 8
  %11 = alloca i64, align 8
  %12 = alloca i64, align 8
  %13 = alloca i32, align 4
  %14 = alloca i32, align 4
  store ptr %0, ptr %6, align 8, !tbaa !15
  store ptr %1, ptr %7, align 8, !tbaa !18
  store i32 %2, ptr %8, align 4, !tbaa !8
  store ptr %3, ptr %9, align 8, !tbaa !164
  call void @llvm.lifetime.start.p0(i64 8, ptr %10) #10
  %15 = load ptr, ptr %6, align 8, !tbaa !15
  store ptr %15, ptr %10, align 8, !tbaa !198
  call void @llvm.lifetime.start.p0(i64 8, ptr %11) #10
  %16 = load i32, ptr %8, align 4, !tbaa !8
  %17 = sext i32 %16 to i64
  store i64 %17, ptr %11, align 8, !tbaa !97
  call void @llvm.lifetime.start.p0(i64 8, ptr %12) #10
  call void @llvm.lifetime.start.p0(i64 4, ptr %13) #10
  %18 = load ptr, ptr %10, align 8, !tbaa !198
  %19 = getelementptr inbounds nuw %struct.IncrblobChannel, ptr %18, i32 0, i32 0
  %20 = load ptr, ptr %19, align 8, !tbaa !201
  %21 = call i32 @sqlite3_blob_bytes(ptr noundef %20)
  %22 = sext i32 %21 to i64
  store i64 %22, ptr %12, align 8, !tbaa !97
  %23 = load ptr, ptr %10, align 8, !tbaa !198
  %24 = getelementptr inbounds nuw %struct.IncrblobChannel, ptr %23, i32 0, i32 2
  %25 = load i64, ptr %24, align 8, !tbaa !237
  %26 = load i64, ptr %11, align 8, !tbaa !97
  %27 = add nsw i64 %25, %26
  %28 = load i64, ptr %12, align 8, !tbaa !97
  %29 = icmp sgt i64 %27, %28
  br i1 %29, label %30, label %36

30:                                               ; preds = %4
  %31 = load i64, ptr %12, align 8, !tbaa !97
  %32 = load ptr, ptr %10, align 8, !tbaa !198
  %33 = getelementptr inbounds nuw %struct.IncrblobChannel, ptr %32, i32 0, i32 2
  %34 = load i64, ptr %33, align 8, !tbaa !237
  %35 = sub nsw i64 %31, %34
  store i64 %35, ptr %11, align 8, !tbaa !97
  br label %36

36:                                               ; preds = %30, %4
  %37 = load i64, ptr %11, align 8, !tbaa !97
  %38 = icmp sle i64 %37, 0
  br i1 %38, label %39, label %40

39:                                               ; preds = %36
  store i32 0, ptr %5, align 4
  store i32 1, ptr %14, align 4
  br label %65

40:                                               ; preds = %36
  %41 = load ptr, ptr %10, align 8, !tbaa !198
  %42 = getelementptr inbounds nuw %struct.IncrblobChannel, ptr %41, i32 0, i32 0
  %43 = load ptr, ptr %42, align 8, !tbaa !201
  %44 = load ptr, ptr %7, align 8, !tbaa !18
  %45 = load i64, ptr %11, align 8, !tbaa !97
  %46 = trunc i64 %45 to i32
  %47 = load ptr, ptr %10, align 8, !tbaa !198
  %48 = getelementptr inbounds nuw %struct.IncrblobChannel, ptr %47, i32 0, i32 2
  %49 = load i64, ptr %48, align 8, !tbaa !237
  %50 = trunc i64 %49 to i32
  %51 = call i32 @sqlite3_blob_read(ptr noundef %43, ptr noundef %44, i32 noundef %46, i32 noundef %50)
  store i32 %51, ptr %13, align 4, !tbaa !8
  %52 = load i32, ptr %13, align 4, !tbaa !8
  %53 = icmp ne i32 %52, 0
  br i1 %53, label %54, label %57

54:                                               ; preds = %40
  %55 = load i32, ptr %13, align 4, !tbaa !8
  %56 = load ptr, ptr %9, align 8, !tbaa !164
  store i32 %55, ptr %56, align 4, !tbaa !8
  store i32 -1, ptr %5, align 4
  store i32 1, ptr %14, align 4
  br label %65

57:                                               ; preds = %40
  %58 = load i64, ptr %11, align 8, !tbaa !97
  %59 = load ptr, ptr %10, align 8, !tbaa !198
  %60 = getelementptr inbounds nuw %struct.IncrblobChannel, ptr %59, i32 0, i32 2
  %61 = load i64, ptr %60, align 8, !tbaa !237
  %62 = add nsw i64 %61, %58
  store i64 %62, ptr %60, align 8, !tbaa !237
  %63 = load i64, ptr %11, align 8, !tbaa !97
  %64 = trunc i64 %63 to i32
  store i32 %64, ptr %5, align 4
  store i32 1, ptr %14, align 4
  br label %65

65:                                               ; preds = %57, %54, %39
  call void @llvm.lifetime.end.p0(i64 4, ptr %13) #10
  call void @llvm.lifetime.end.p0(i64 8, ptr %12) #10
  call void @llvm.lifetime.end.p0(i64 8, ptr %11) #10
  call void @llvm.lifetime.end.p0(i64 8, ptr %10) #10
  %66 = load i32, ptr %5, align 4
  ret i32 %66
}