; Function Attrs: nounwind uwtable
define internal noundef i32 @incrblobInput(ptr noundef captures(none) %0, ptr noundef %1, i32 noundef %2, ptr noundef writeonly captures(none) %3) #0 {
  %5 = sext i32 %2 to i64
  %6 = load ptr, ptr %0, align 8, !tbaa !189
  %7 = tail call i32 @sqlite3_blob_bytes(ptr noundef %6) #14
  %8 = sext i32 %7 to i64
  %9 = getelementptr inbounds nuw i8, ptr %0, i64 16
  %10 = load i64, ptr %9, align 8, !tbaa !210
  %11 = add nsw i64 %10, %5
  %12 = icmp sgt i64 %11, %8
  %13 = sub nsw i64 %8, %10
  %spec.select = select i1 %12, i64 %13, i64 %5
  %14 = icmp slt i64 %spec.select, 1
  br i1 %14, label %24, label %15

15:                                               ; preds = %4
  %16 = load ptr, ptr %0, align 8, !tbaa !189
  %17 = trunc i64 %spec.select to i32
  %18 = trunc i64 %10 to i32
  %19 = tail call i32 @sqlite3_blob_read(ptr noundef %16, ptr noundef %1, i32 noundef %17, i32 noundef %18) #14
  %.not = icmp eq i32 %19, 0
  br i1 %.not, label %21, label %20

20:                                               ; preds = %15
  store i32 %19, ptr %3, align 4, !tbaa !12
  br label %24

21:                                               ; preds = %15
  %22 = load i64, ptr %9, align 8, !tbaa !210
  %23 = add nsw i64 %22, %spec.select
  store i64 %23, ptr %9, align 8, !tbaa !210
  br label %24

24:                                               ; preds = %4, %21, %20
  %.0 = phi i32 [ -1, %20 ], [ %17, %21 ], [ 0, %4 ]
  ret i32 %.0
}